; Function Attrs: nounwind uwtable
define dso_local i32 @acct_storage_p_reconfig(ptr noundef %0, i1 noundef zeroext %1) local_unnamed_addr #0 {
  %3 = alloca %struct.persist_msg_t, align 8
  %4 = alloca i32, align 4
  call void @llvm.lifetime.start.p0(i64 24, ptr nonnull %3) #11
  %5 = getelementptr inbounds nuw i8, ptr %3, i64 8
  call void @llvm.memset.p0.i64(ptr noundef nonnull align 8 dereferenceable(24) %5, i8 0, i64 16, i1 false)
  call void @llvm.lifetime.start.p0(i64 4, ptr nonnull %4) #11
  store i32 0, ptr %4, align 4
  br i1 %1, label %7, label %6

6:                                                ; preds = %2
  tail call void @slurmdbd_agent_config_setup() #11
  tail call void @ext_dbd_reconfig() #11
  br label %11

7:                                                ; preds = %2
  %8 = getelementptr inbounds nuw i8, ptr %3, i64 16
  store i16 1414, ptr %8, align 8
  store ptr %0, ptr %3, align 8
  %9 = call i32 @dbd_conn_send_recv_rc_msg(i16 noundef zeroext 11008, ptr noundef nonnull %3, ptr noundef nonnull %4) #11
  %10 = load i32, ptr %4, align 4
  br label %11

11:                                               ; preds = %7, %6
  %.0 = phi i32 [ %10, %7 ], [ 0, %6 ]
  call void @llvm.lifetime.end.p0(i64 4, ptr nonnull %4) #11
  call void @llvm.lifetime.end.p0(i64 24, ptr nonnull %3) #11
  ret i32 %.0
}